target datalayout = "e-m:e-p270:32:32-p271:32:32-p272:64:64-i64:64-i128:128-f80:128-n8:16:32:64-S128"
target triple = "x86_64-pc-linux-gnu"

%struct.AVComplexInt32 = type { i32, i32 }
%struct.AVTXContext = type { i32, i32, ptr, ptr, ptr, ptr, [4 x ptr], i32, [4 x ptr], ptr, i32, i64, i32, float, double, ptr }

; Function Attrs: alwaysinline nounwind willreturn memory(none) uwtable
define internal i64 @av_clip64_c(i64 noundef %0, i64 noundef %1, i64 noundef %2) #2 {
  %4 = alloca i64, align 8
  %5 = alloca i64, align 8
  %6 = alloca i64, align 8
  %7 = alloca i64, align 8
  store i64 %0, ptr %5, align 8, !tbaa !30
  store i64 %1, ptr %6, align 8, !tbaa !30
  store i64 %2, ptr %7, align 8, !tbaa !30
  %8 = load i64, ptr %5, align 8, !tbaa !30
  %9 = load i64, ptr %6, align 8, !tbaa !30
  %10 = icmp slt i64 %8, %9
  br i1 %10, label %11, label %13

11:                                               ; preds = %3
  %12 = load i64, ptr %6, align 8, !tbaa !30
  store i64 %12, ptr %4, align 8
  br label %21

13:                                               ; preds = %3
  %14 = load i64, ptr %5, align 8, !tbaa !30
  %15 = load i64, ptr %7, align 8, !tbaa !30
  %16 = icmp sgt i64 %14, %15
  br i1 %16, label %17, label %19

17:                                               ; preds = %13
  %18 = load i64, ptr %7, align 8, !tbaa !30
  store i64 %18, ptr %4, align 8
  br label %21

19:                                               ; preds = %13
  %20 = load i64, ptr %5, align 8, !tbaa !30
  store i64 %20, ptr %4, align 8
  br label %21

21:                                               ; preds = %19, %17, %11
  %22 = load i64, ptr %4, align 8
  ret i64 %22
}

; Function Attrs: nounwind uwtable
define internal void @ff_tx_fft_naive_int32_c(ptr noundef %0, ptr noundef %1, ptr noundef %2, i64 noundef %3) #4 {
  %5 = alloca ptr, align 8
  %6 = alloca ptr, align 8
  %7 = alloca ptr, align 8
  %8 = alloca i64, align 8
  %9 = alloca ptr, align 8
  %10 = alloca ptr, align 8
  %11 = alloca i32, align 4
  %12 = alloca double, align 8
  %13 = alloca i32, align 4
  %14 = alloca i32, align 4
  %15 = alloca %struct.AVComplexInt32, align 4
  %16 = alloca i32, align 4
  %17 = alloca double, align 8
  %18 = alloca %struct.AVComplexInt32, align 4
  %19 = alloca %struct.AVComplexInt32, align 4
  %20 = alloca i64, align 8
  store ptr %0, ptr %5, align 8, !tbaa !17
  store ptr %1, ptr %6, align 8, !tbaa !8
  store ptr %2, ptr %7, align 8, !tbaa !8
  store i64 %3, ptr %8, align 8, !tbaa !30
  call void @llvm.lifetime.start.p0(i64 8, ptr %9) #10
  %21 = load ptr, ptr %7, align 8, !tbaa !8
  store ptr %21, ptr %9, align 8, !tbaa !57
  call void @llvm.lifetime.start.p0(i64 8, ptr %10) #10
  %22 = load ptr, ptr %6, align 8, !tbaa !8
  store ptr %22, ptr %10, align 8, !tbaa !57
  call void @llvm.lifetime.start.p0(i64 4, ptr %11) #10
  %23 = load ptr, ptr %5, align 8, !tbaa !17
  %24 = getelementptr inbounds nuw %struct.AVTXContext, ptr %23, i32 0, i32 0
  %25 = load i32, ptr %24, align 8, !tbaa !21
  store i32 %25, ptr %11, align 4, !tbaa !4
  call void @llvm.lifetime.start.p0(i64 8, ptr %12) #10
  %26 = load ptr, ptr %5, align 8, !tbaa !17
  %27 = getelementptr inbounds nuw %struct.AVTXContext, ptr %26, i32 0, i32 1
  %28 = load i32, ptr %27, align 4, !tbaa !82
  %29 = icmp ne i32 %28, 0
  br i1 %29, label %30, label %34

30:                                               ; preds = %4
  %31 = load i32, ptr %11, align 4, !tbaa !4
  %32 = sitofp i32 %31 to double
  %33 = fdiv nsz double 0x401921FB54442D18, %32
  br label %38

34:                                               ; preds = %4
  %35 = load i32, ptr %11, align 4, !tbaa !4
  %36 = sitofp i32 %35 to double
  %37 = fdiv nsz double 0xC01921FB54442D18, %36
  br label %38

38:                                               ; preds = %34, %30
  %39 = phi nsz double [ %33, %30 ], [ %37, %34 ]
  store double %39, ptr %12, align 8, !tbaa !29
  %40 = load i64, ptr %8, align 8, !tbaa !30
  %41 = udiv i64 %40, 8
  store i64 %41, ptr %8, align 8, !tbaa !30
  call void @llvm.lifetime.start.p0(i64 4, ptr %13) #10
  store i32 0, ptr %13, align 4, !tbaa !4
  br label %42

42:                                               ; preds = %158, %38
  %43 = load i32, ptr %13, align 4, !tbaa !4
  %44 = load i32, ptr %11, align 4, !tbaa !4
  %45 = icmp slt i32 %43, %44
  br i1 %45, label %47, label %46

46:                                               ; preds = %42
  store i32 2, ptr %14, align 4
  call void @llvm.lifetime.end.p0(i64 4, ptr %13) #10
  br label %161

47:                                               ; preds = %42
  call void @llvm.lifetime.start.p0(i64 8, ptr %15) #10
  call void @llvm.memset.p0.i64(ptr align 4 %15, i8 0, i64 8, i1 false)
  call void @llvm.lifetime.start.p0(i64 4, ptr %16) #10
  store i32 0, ptr %16, align 4, !tbaa !4
  br label %48

48:                                               ; preds = %148, %47
  %49 = load i32, ptr %16, align 4, !tbaa !4
  %50 = load i32, ptr %11, align 4, !tbaa !4
  %51 = icmp slt i32 %49, %50
  br i1 %51, label %53, label %52

52:                                               ; preds = %48
  store i32 5, ptr %14, align 4
  call void @llvm.lifetime.end.p0(i64 4, ptr %16) #10
  br label %151

53:                                               ; preds = %48
  call void @llvm.lifetime.start.p0(i64 8, ptr %17) #10
  %54 = load double, ptr %12, align 8, !tbaa !29
  %55 = load i32, ptr %13, align 4, !tbaa !4
  %56 = sitofp i32 %55 to double
  %57 = fmul nsz double %54, %56
  %58 = load i32, ptr %16, align 4, !tbaa !4
  %59 = sitofp i32 %58 to double
  %60 = fmul nsz double %57, %59
  store double %60, ptr %17, align 8, !tbaa !29
  call void @llvm.lifetime.start.p0(i64 8, ptr %18) #10
  %61 = getelementptr inbounds nuw %struct.AVComplexInt32, ptr %18, i32 0, i32 0
  %62 = load double, ptr %17, align 8, !tbaa !29
  %63 = call nsz double @llvm.cos.f64(double %62)
  %64 = fmul nsz double %63, 0x41E0000000000000
  %65 = fptrunc nsz double %64 to float
  %66 = call i64 @llvm.llrint.i64.f32(float %65)
  %67 = call i64 @av_clip64_c(i64 noundef %66, i64 noundef -2147483648, i64 noundef 2147483647) #11
  %68 = trunc i64 %67 to i32
  store i32 %68, ptr %61, align 4, !tbaa !32
  %69 = getelementptr inbounds nuw %struct.AVComplexInt32, ptr %18, i32 0, i32 1
  %70 = load double, ptr %17, align 8, !tbaa !29
  %71 = call nsz double @llvm.sin.f64(double %70)
  %72 = fmul nsz double %71, 0x41E0000000000000
  %73 = fptrunc nsz double %72 to float
  %74 = call i64 @llvm.llrint.i64.f32(float %73)
  %75 = call i64 @av_clip64_c(i64 noundef %74, i64 noundef -2147483648, i64 noundef 2147483647) #11
  %76 = trunc i64 %75 to i32
  store i32 %76, ptr %69, align 4, !tbaa !34
  call void @llvm.lifetime.start.p0(i64 8, ptr %19) #10
  br label %77

77:                                               ; preds = %53
  call void @llvm.lifetime.start.p0(i64 8, ptr %20) #10
  %78 = getelementptr inbounds nuw %struct.AVComplexInt32, ptr %18, i32 0, i32 0
  %79 = load i32, ptr %78, align 4, !tbaa !32
  %80 = sext i32 %79 to i64
  %81 = load ptr, ptr %9, align 8, !tbaa !57
  %82 = load i32, ptr %16, align 4, !tbaa !4
  %83 = sext i32 %82 to i64
  %84 = getelementptr inbounds %struct.AVComplexInt32, ptr %81, i64 %83
  %85 = getelementptr inbounds nuw %struct.AVComplexInt32, ptr %84, i32 0, i32 0
  %86 = load i32, ptr %85, align 4, !tbaa !32
  %87 = sext i32 %86 to i64
  %88 = mul nsw i64 %80, %87
  store i64 %88, ptr %20, align 8, !tbaa !30
  %89 = getelementptr inbounds nuw %struct.AVComplexInt32, ptr %18, i32 0, i32 1
  %90 = load i32, ptr %89, align 4, !tbaa !34
  %91 = sext i32 %90 to i64
  %92 = load ptr, ptr %9, align 8, !tbaa !57
  %93 = load i32, ptr %16, align 4, !tbaa !4
  %94 = sext i32 %93 to i64
  %95 = getelementptr inbounds %struct.AVComplexInt32, ptr %92, i64 %94
  %96 = getelementptr inbounds nuw %struct.AVComplexInt32, ptr %95, i32 0, i32 1
  %97 = load i32, ptr %96, align 4, !tbaa !34
  %98 = sext i32 %97 to i64
  %99 = mul nsw i64 %91, %98
  %100 = load i64, ptr %20, align 8, !tbaa !30
  %101 = sub nsw i64 %100, %99
  store i64 %101, ptr %20, align 8, !tbaa !30
  %102 = load i64, ptr %20, align 8, !tbaa !30
  %103 = add nsw i64 %102, 1073741824
  %104 = ashr i64 %103, 31
  %105 = trunc i64 %104 to i32
  %106 = getelementptr inbounds nuw %struct.AVComplexInt32, ptr %19, i32 0, i32 0
  store i32 %105, ptr %106, align 4, !tbaa !32
  %107 = getelementptr inbounds nuw %struct.AVComplexInt32, ptr %18, i32 0, i32 1
  %108 = load i32, ptr %107, align 4, !tbaa !34
  %109 = sext i32 %108 to i64
  %110 = load ptr, ptr %9, align 8, !tbaa !57
  %111 = load i32, ptr %16, align 4, !tbaa !4
  %112 = sext i32 %111 to i64
  %113 = getelementptr inbounds %struct.AVComplexInt32, ptr %110, i64 %112
  %114 = getelementptr inbounds nuw %struct.AVComplexInt32, ptr %113, i32 0, i32 0
  %115 = load i32, ptr %114, align 4, !tbaa !32
  %116 = sext i32 %115 to i64
  %117 = mul nsw i64 %109, %116
  store i64 %117, ptr %20, align 8, !tbaa !30
  %118 = getelementptr inbounds nuw %struct.AVComplexInt32, ptr %18, i32 0, i32 0
  %119 = load i32, ptr %118, align 4, !tbaa !32
  %120 = sext i32 %119 to i64
  %121 = load ptr, ptr %9, align 8, !tbaa !57
  %122 = load i32, ptr %16, align 4, !tbaa !4
  %123 = sext i32 %122 to i64
  %124 = getelementptr inbounds %struct.AVComplexInt32, ptr %121, i64 %123
  %125 = getelementptr inbounds nuw %struct.AVComplexInt32, ptr %124, i32 0, i32 1
  %126 = load i32, ptr %125, align 4, !tbaa !34
  %127 = sext i32 %126 to i64
  %128 = mul nsw i64 %120, %127
  %129 = load i64, ptr %20, align 8, !tbaa !30
  %130 = add nsw i64 %129, %128
  store i64 %130, ptr %20, align 8, !tbaa !30
  %131 = load i64, ptr %20, align 8, !tbaa !30
  %132 = add nsw i64 %131, 1073741824
  %133 = ashr i64 %132, 31
  %134 = trunc i64 %133 to i32
  %135 = getelementptr inbounds nuw %struct.AVComplexInt32, ptr %19, i32 0, i32 1
  store i32 %134, ptr %135, align 4, !tbaa !34
  call void @llvm.lifetime.end.p0(i64 8, ptr %20) #10
  br label %136

136:                                              ; preds = %77
  br label %137

137:                                              ; preds = %136
  %138 = getelementptr inbounds nuw %struct.AVComplexInt32, ptr %19, i32 0, i32 0
  %139 = load i32, ptr %138, align 4, !tbaa !32
  %140 = getelementptr inbounds nuw %struct.AVComplexInt32, ptr %15, i32 0, i32 0
  %141 = load i32, ptr %140, align 4, !tbaa !32
  %142 = add nsw i32 %141, %139
  store i32 %142, ptr %140, align 4, !tbaa !32
  %143 = getelementptr inbounds nuw %struct.AVComplexInt32, ptr %19, i32 0, i32 1
  %144 = load i32, ptr %143, align 4, !tbaa !34
  %145 = getelementptr inbounds nuw %struct.AVComplexInt32, ptr %15, i32 0, i32 1
  %146 = load i32, ptr %145, align 4, !tbaa !34
  %147 = add nsw i32 %146, %144
  store i32 %147, ptr %145, align 4, !tbaa !34
  call void @llvm.lifetime.end.p0(i64 8, ptr %19) #10
  call void @llvm.lifetime.end.p0(i64 8, ptr %18) #10
  call void @llvm.lifetime.end.p0(i64 8, ptr %17) #10
  br label %148

148:                                              ; preds = %137
  %149 = load i32, ptr %16, align 4, !tbaa !4
  %150 = add nsw i32 %149, 1
  store i32 %150, ptr %16, align 4, !tbaa !4
  br label %48, !llvm.loop !83

151:                                              ; preds = %52
  %152 = load ptr, ptr %10, align 8, !tbaa !57
  %153 = load i32, ptr %13, align 4, !tbaa !4
  %154 = sext i32 %153 to i64
  %155 = load i64, ptr %8, align 8, !tbaa !30
  %156 = mul nsw i64 %154, %155
  %157 = getelementptr inbounds %struct.AVComplexInt32, ptr %152, i64 %156
  call void @llvm.memcpy.p0.p0.i64(ptr align 4 %157, ptr align 4 %15, i64 8, i1 false), !tbaa.struct !35
  call void @llvm.lifetime.end.p0(i64 8, ptr %15) #10
  br label %158

158:                                              ; preds = %151
  %159 = load i32, ptr %13, align 4, !tbaa !4
  %160 = add nsw i32 %159, 1
  store i32 %160, ptr %13, align 4, !tbaa !4
  br label %42, !llvm.loop !84

161:                                              ; preds = %46
  call void @llvm.lifetime.end.p0(i64 8, ptr %12) #10
  call void @llvm.lifetime.end.p0(i64 4, ptr %11) #10
  call void @llvm.lifetime.end.p0(i64 8, ptr %10) #10
  call void @llvm.lifetime.end.p0(i64 8, ptr %9) #10
  ret void
}