; Function Attrs: nofree norecurse nosync nounwind memory(argmem: readwrite) uwtable
define internal void @ff_tx_fft_naive_int32_c(ptr noundef readonly captures(none) %0, ptr noundef writeonly captures(none) %1, ptr noundef readonly captures(none) %2, i64 noundef %3) #13 {
  %5 = load i32, ptr %0, align 8, !tbaa !16
  %6 = getelementptr inbounds nuw i8, ptr %0, i64 4
  %7 = load i32, ptr %6, align 4, !tbaa !73
  %.not = icmp eq i32 %7, 0
  %8 = sitofp i32 %5 to double
  %.v = select i1 %.not, double 0xC01921FB54442D18, double 0x401921FB54442D18
  %9 = fdiv nsz double %.v, %8
  %10 = lshr i64 %3, 3
  %11 = icmp sgt i32 %5, 0
  br i1 %11, label %.preheader.us.preheader, label %._crit_edge47

.preheader.us.preheader:                          ; preds = %4
  %wide.trip.count53 = zext nneg i32 %5 to i64
  br label %.preheader.us

.preheader.us:                                    ; preds = %.preheader.us.preheader, %._crit_edge.us
  %indvars.iv50 = phi i64 [ 0, %.preheader.us.preheader ], [ %indvars.iv.next51, %._crit_edge.us ]
  %12 = trunc nuw nsw i64 %indvars.iv50 to i32
  %13 = uitofp nneg i32 %12 to double
  %14 = fmul nsz double %9, %13
  br label %15

15:                                               ; preds = %.preheader.us, %15
  %indvars.iv = phi i64 [ 0, %.preheader.us ], [ %indvars.iv.next, %15 ]
  %.sroa.015.144.us = phi i32 [ 0, %.preheader.us ], [ %47, %15 ]
  %.sroa.6.143.us = phi i32 [ 0, %.preheader.us ], [ %48, %15 ]
  %16 = trunc nuw nsw i64 %indvars.iv to i32
  %17 = uitofp nneg i32 %16 to double
  %18 = fmul nsz double %14, %17
  %19 = tail call nsz double @llvm.cos.f64(double %18)
  %20 = fmul nsz double %19, 0x41E0000000000000
  %21 = fptrunc nsz double %20 to float
  %22 = tail call i64 @llvm.llrint.i64.f32(float %21)
  %23 = tail call i64 @llvm.smax.i64(i64 %22, i64 -2147483648)
  %.0.i41.us = tail call i64 @llvm.smin.i64(i64 %23, i64 2147483647)
  %24 = tail call nsz double @llvm.sin.f64(double %18)
  %25 = fmul nsz double %24, 0x41E0000000000000
  %26 = fptrunc nsz double %25 to float
  %27 = tail call i64 @llvm.llrint.i64.f32(float %26)
  %28 = tail call i64 @llvm.smax.i64(i64 %27, i64 -2147483648)
  %.0.i.us = tail call i64 @llvm.smin.i64(i64 %28, i64 2147483647)
  %29 = getelementptr inbounds nuw %struct.AVComplexInt32, ptr %2, i64 %indvars.iv
  %30 = load i32, ptr %29, align 4, !tbaa !48
  %31 = sext i32 %30 to i64
  %32 = mul nsw i64 %.0.i41.us, %31
  %33 = getelementptr inbounds nuw i8, ptr %29, i64 4
  %34 = load i32, ptr %33, align 4, !tbaa !50
  %35 = sext i32 %34 to i64
  %36 = mul nsw i64 %.0.i.us, %35
  %37 = add nsw i64 %32, 1073741824
  %38 = sub nsw i64 %37, %36
  %39 = lshr i64 %38, 31
  %40 = trunc i64 %39 to i32
  %41 = mul nsw i64 %.0.i.us, %31
  %42 = mul nsw i64 %.0.i41.us, %35
  %43 = add nsw i64 %41, 1073741824
  %44 = add i64 %43, %42
  %45 = lshr i64 %44, 31
  %46 = trunc i64 %45 to i32
  %47 = add nsw i32 %.sroa.015.144.us, %40
  %48 = add nsw i32 %.sroa.6.143.us, %46
  %indvars.iv.next = add nuw nsw i64 %indvars.iv, 1
  %exitcond.not = icmp eq i64 %indvars.iv.next, %wide.trip.count53
  br i1 %exitcond.not, label %._crit_edge.us, label %15, !llvm.loop !74

._crit_edge.us:                                   ; preds = %15
  %49 = mul nuw nsw i64 %10, %indvars.iv50
  %50 = getelementptr inbounds nuw %struct.AVComplexInt32, ptr %1, i64 %49
  store i32 %47, ptr %50, align 4, !tbaa !10
  %.sroa.6.0..sroa_idx.us = getelementptr inbounds nuw i8, ptr %50, i64 4
  store i32 %48, ptr %.sroa.6.0..sroa_idx.us, align 4, !tbaa !10
  %indvars.iv.next51 = add nuw nsw i64 %indvars.iv50, 1
  %exitcond54.not = icmp eq i64 %indvars.iv.next51, %wide.trip.count53
  br i1 %exitcond54.not, label %._crit_edge47, label %.preheader.us, !llvm.loop !75

._crit_edge47:                                    ; preds = %._crit_edge.us, %4
  ret void
}